target datalayout = "e-m:e-p270:32:32-p271:32:32-p272:64:64-i64:64-i128:128-f80:128-n8:16:32:64-S128"
target triple = "x86_64-unknown-linux-gnu"

; Function Attrs: nounwind uwtable
define hidden ptr @zip_strerror(i32 noundef %errnum) #0 {
entry:
  %retval = alloca ptr, align 8
  %errnum.addr = alloca i32, align 4
  store i32 %errnum, ptr %errnum.addr, align 4
  %0 = load i32, ptr %errnum.addr, align 4
  %sub = sub nsw i32 0, %0
  store i32 %sub, ptr %errnum.addr, align 4
  %1 = load i32, ptr %errnum.addr, align 4
  %cmp = icmp sle i32 %1, 0
  br i1 %cmp, label %if.then, label %lor.lhs.false

lor.lhs.false:                                    ; preds = %entry
  %2 = load i32, ptr %errnum.addr, align 4
  %cmp1 = icmp sge i32 %2, 30
  br i1 %cmp1, label %if.then, label %if.end

if.then:                                          ; preds = %lor.lhs.false, %entry
  store ptr null, ptr %retval, align 8
  br label %return

if.end:                                           ; preds = %lor.lhs.false
  %3 = load i32, ptr %errnum.addr, align 4
  %idxprom = sext i32 %3 to i64
  %arrayidx = getelementptr inbounds [30 x ptr], ptr @zip_errlist, i64 0, i64 %idxprom
  %4 = load ptr, ptr %arrayidx, align 8
  store ptr %4, ptr %retval, align 8
  br label %return

return:                                           ; preds = %if.end, %if.then
  %5 = load ptr, ptr %retval, align 8
  ret ptr %5
}