; Function Attrs: mustprogress nofree norecurse nosync nounwind willreturn memory(none) uwtable
define hidden ptr @zip_strerror(i32 noundef %errnum) local_unnamed_addr #3 {
entry:
  %or.cond = icmp ult i32 %errnum, -29
  br i1 %or.cond, label %return, label %if.end

if.end:                                           ; preds = %entry
  %sub = sub nsw i32 0, %errnum
  %idxprom = zext nneg i32 %sub to i64
  %arrayidx = getelementptr inbounds nuw [30 x ptr], ptr @zip_errlist, i64 0, i64 %idxprom
  %0 = load ptr, ptr %arrayidx, align 8
  br label %return

return:                                           ; preds = %entry, %if.end
  %retval.0 = phi ptr [ %0, %if.end ], [ null, %entry ]
  ret ptr %retval.0
}